; Function Attrs: mustprogress uwtable
define dso_local void @_ZN34btDeformableMultiBodyDynamicsWorld19removeSoftBodyForceEP10btSoftBody(ptr noundef nonnull readonly align 8 captures(none) dereferenceable(1056) %0, ptr noundef %1) local_unnamed_addr #4 align 2 {
  %3 = getelementptr inbounds nuw i8, ptr %0, i64 848
  %4 = load ptr, ptr %3, align 8, !tbaa !81
  %5 = load ptr, ptr %4, align 8, !tbaa !50
  %6 = getelementptr inbounds nuw i8, ptr %5, i64 208
  %7 = load ptr, ptr %6, align 8
  %8 = tail call noundef ptr %7(ptr noundef nonnull align 8 dereferenceable(609) %4)
  %9 = getelementptr inbounds nuw i8, ptr %8, i64 4
  %10 = load i32, ptr %9, align 4, !tbaa !439
  %11 = icmp sgt i32 %10, 0
  br i1 %11, label %.lr.ph, label %._crit_edge

.lr.ph:                                           ; preds = %2
  %12 = getelementptr inbounds nuw i8, ptr %8, i64 16
  br label %13

._crit_edge:                                      ; preds = %13, %2
  ret void

13:                                               ; preds = %.lr.ph, %13
  %indvars.iv = phi i64 [ 0, %.lr.ph ], [ %indvars.iv.next, %13 ]
  %14 = load ptr, ptr %12, align 8, !tbaa !444
  %15 = getelementptr inbounds nuw ptr, ptr %14, i64 %indvars.iv
  %16 = load ptr, ptr %15, align 8, !tbaa !445
  %17 = load ptr, ptr %16, align 8, !tbaa !50
  %18 = getelementptr inbounds nuw i8, ptr %17, i64 104
  %19 = load ptr, ptr %18, align 8
  tail call void %19(ptr noundef nonnull align 8 dereferenceable(48) %16, ptr noundef %1)
  %indvars.iv.next = add nuw nsw i64 %indvars.iv, 1
  %20 = load i32, ptr %9, align 4, !tbaa !439
  %21 = sext i32 %20 to i64
  %22 = icmp slt i64 %indvars.iv.next, %21
  br i1 %22, label %13, label %._crit_edge, !llvm.loop !451
}